target datalayout = "e-m:e-p270:32:32-p271:32:32-p272:64:64-i64:64-i128:128-f80:128-n8:16:32:64-S128"
target triple = "x86_64-pc-linux-gnu"

%struct.lua_State = type { ptr, i8, i8, i8, i8, i16, %union.StkIdRel, ptr, ptr, %union.StkIdRel, %union.StkIdRel, ptr, %union.StkIdRel, ptr, ptr, ptr, %struct.CallInfo, ptr, i64, i32, i32, i32, i32, i32, %struct.anon.2 }
%union.StkIdRel = type { ptr }
%struct.CallInfo = type { %union.StkIdRel, %union.StkIdRel, ptr, ptr, %union.anon, %union.anon.1, i32 }
%union.anon = type { %struct.anon.0 }
%struct.anon.0 = type { ptr, i64, i64 }
%union.anon.1 = type { i32 }
%struct.anon.2 = type { i32, i32 }
%struct.global_State = type { ptr, ptr, i64, i64, i64, i64, %struct.stringtable, %struct.TValue, %struct.TValue, i32, [6 x i8], i8, i8, i8, i8, i8, i8, ptr, ptr, ptr, ptr, ptr, ptr, ptr, ptr, ptr, ptr, ptr, ptr, ptr, ptr, ptr, ptr, ptr, ptr, ptr, ptr, ptr, [25 x ptr], [9 x ptr], [53 x [2 x ptr]], ptr, ptr }
%struct.stringtable = type { ptr, i32, i32 }
%struct.TValue = type { %union.Value, i8 }
%union.Value = type { ptr }
%struct.GCObject = type { ptr, i8, i8 }
%struct.Table = type { ptr, i8, i8, i8, i8, i32, ptr, ptr, ptr, ptr }

; Function Attrs: nounwind uwtable
define internal void @checkpointer(ptr noundef %0, ptr noundef %1) #0 {
  %3 = alloca ptr, align 8
  %4 = alloca ptr, align 8
  store ptr %0, ptr %3, align 8, !tbaa !52
  store ptr %1, ptr %4, align 8, !tbaa !9
  %5 = load ptr, ptr %4, align 8, !tbaa !9
  %6 = load ptr, ptr %3, align 8, !tbaa !52
  %7 = load ptr, ptr %6, align 8, !tbaa !9
  %8 = icmp eq ptr %5, %7
  br i1 %8, label %9, label %14

9:                                                ; preds = %2
  %10 = load ptr, ptr %4, align 8, !tbaa !9
  %11 = getelementptr inbounds nuw %struct.GCObject, ptr %10, i32 0, i32 0
  %12 = load ptr, ptr %11, align 8, !tbaa !53
  %13 = load ptr, ptr %3, align 8, !tbaa !52
  store ptr %12, ptr %13, align 8, !tbaa !9
  br label %14

14:                                               ; preds = %9, %2
  ret void
}

; Function Attrs: nounwind uwtable
define internal void @correctpointers(ptr noundef %0, ptr noundef %1) #0 {
  %3 = alloca ptr, align 8
  %4 = alloca ptr, align 8
  store ptr %0, ptr %3, align 8, !tbaa !22
  store ptr %1, ptr %4, align 8, !tbaa !9
  %5 = load ptr, ptr %3, align 8, !tbaa !22
  %6 = getelementptr inbounds nuw %struct.global_State, ptr %5, i32 0, i32 27
  %7 = load ptr, ptr %4, align 8, !tbaa !9
  call void @checkpointer(ptr noundef %6, ptr noundef %7)
  %8 = load ptr, ptr %3, align 8, !tbaa !22
  %9 = getelementptr inbounds nuw %struct.global_State, ptr %8, i32 0, i32 28
  %10 = load ptr, ptr %4, align 8, !tbaa !9
  call void @checkpointer(ptr noundef %9, ptr noundef %10)
  %11 = load ptr, ptr %3, align 8, !tbaa !22
  %12 = getelementptr inbounds nuw %struct.global_State, ptr %11, i32 0, i32 29
  %13 = load ptr, ptr %4, align 8, !tbaa !9
  call void @checkpointer(ptr noundef %12, ptr noundef %13)
  %14 = load ptr, ptr %3, align 8, !tbaa !22
  %15 = getelementptr inbounds nuw %struct.global_State, ptr %14, i32 0, i32 30
  %16 = load ptr, ptr %4, align 8, !tbaa !9
  call void @checkpointer(ptr noundef %15, ptr noundef %16)
  ret void
}

; Function Attrs: nounwind uwtable
define hidden void @luaC_checkfinalizer(ptr noundef %0, ptr noundef %1, ptr noundef %2) #0 {
  %4 = alloca ptr, align 8
  %5 = alloca ptr, align 8
  %6 = alloca ptr, align 8
  %7 = alloca ptr, align 8
  %8 = alloca i32, align 4
  %9 = alloca ptr, align 8
  store ptr %0, ptr %4, align 8, !tbaa !4
  store ptr %1, ptr %5, align 8, !tbaa !9
  store ptr %2, ptr %6, align 8, !tbaa !59
  call void @llvm.lifetime.start.p0(i64 8, ptr %7) #6
  %10 = load ptr, ptr %4, align 8, !tbaa !4
  %11 = getelementptr inbounds nuw %struct.lua_State, ptr %10, i32 0, i32 7
  %12 = load ptr, ptr %11, align 8, !tbaa !11
  store ptr %12, ptr %7, align 8, !tbaa !22
  %13 = load ptr, ptr %5, align 8, !tbaa !9
  %14 = getelementptr inbounds nuw %struct.GCObject, ptr %13, i32 0, i32 2
  %15 = load i8, ptr %14, align 1, !tbaa !30
  %16 = zext i8 %15 to i32
  %17 = and i32 %16, 64
  %18 = icmp ne i32 %17, 0
  br i1 %18, label %47, label %19

19:                                               ; preds = %3
  %20 = load ptr, ptr %6, align 8, !tbaa !59
  %21 = icmp eq ptr %20, null
  br i1 %21, label %29, label %22

22:                                               ; preds = %19
  %23 = load ptr, ptr %6, align 8, !tbaa !59
  %24 = getelementptr inbounds nuw %struct.Table, ptr %23, i32 0, i32 3
  %25 = load i8, ptr %24, align 2, !tbaa !60
  %26 = zext i8 %25 to i32
  %27 = and i32 %26, 4
  %28 = icmp ne i32 %27, 0
  br i1 %28, label %29, label %30

29:                                               ; preds = %22, %19
  br label %37

30:                                               ; preds = %22
  %31 = load ptr, ptr %6, align 8, !tbaa !59
  %32 = load ptr, ptr %7, align 8, !tbaa !22
  %33 = getelementptr inbounds nuw %struct.global_State, ptr %32, i32 0, i32 38
  %34 = getelementptr inbounds [25 x ptr], ptr %33, i64 0, i64 2
  %35 = load ptr, ptr %34, align 8, !tbaa !61
  %36 = call ptr @luaT_gettm(ptr noundef %31, i32 noundef 2, ptr noundef %35)
  br label %37

37:                                               ; preds = %30, %29
  %38 = phi ptr [ null, %29 ], [ %36, %30 ]
  %39 = icmp eq ptr %38, null
  br i1 %39, label %47, label %40

40:                                               ; preds = %37
  %41 = load ptr, ptr %7, align 8, !tbaa !22
  %42 = getelementptr inbounds nuw %struct.global_State, ptr %41, i32 0, i32 15
  %43 = load i8, ptr %42, align 2, !tbaa !62
  %44 = zext i8 %43 to i32
  %45 = and i32 %44, 4
  %46 = icmp ne i32 %45, 0
  br i1 %46, label %47, label %48

47:                                               ; preds = %40, %37, %3
  store i32 1, ptr %8, align 4
  br label %128

48:                                               ; preds = %40
  call void @llvm.lifetime.start.p0(i64 8, ptr %9) #6
  %49 = load ptr, ptr %7, align 8, !tbaa !22
  %50 = getelementptr inbounds nuw %struct.global_State, ptr %49, i32 0, i32 12
  %51 = load i8, ptr %50, align 1, !tbaa !23
  %52 = zext i8 %51 to i32
  %53 = icmp sle i32 3, %52
  br i1 %53, label %54, label %92

54:                                               ; preds = %48
  %55 = load ptr, ptr %7, align 8, !tbaa !22
  %56 = getelementptr inbounds nuw %struct.global_State, ptr %55, i32 0, i32 12
  %57 = load i8, ptr %56, align 1, !tbaa !23
  %58 = zext i8 %57 to i32
  %59 = icmp sle i32 %58, 6
  br i1 %59, label %60, label %92

60:                                               ; preds = %54
  %61 = load ptr, ptr %5, align 8, !tbaa !9
  %62 = getelementptr inbounds nuw %struct.GCObject, ptr %61, i32 0, i32 2
  %63 = load i8, ptr %62, align 1, !tbaa !30
  %64 = zext i8 %63 to i32
  %65 = and i32 %64, -57
  %66 = load ptr, ptr %7, align 8, !tbaa !22
  %67 = getelementptr inbounds nuw %struct.global_State, ptr %66, i32 0, i32 11
  %68 = load i8, ptr %67, align 2, !tbaa !33
  %69 = zext i8 %68 to i32
  %70 = and i32 %69, 24
  %71 = trunc i32 %70 to i8
  %72 = zext i8 %71 to i32
  %73 = or i32 %65, %72
  %74 = trunc i32 %73 to i8
  %75 = load ptr, ptr %5, align 8, !tbaa !9
  %76 = getelementptr inbounds nuw %struct.GCObject, ptr %75, i32 0, i32 2
  store i8 %74, ptr %76, align 1, !tbaa !30
  %77 = load ptr, ptr %7, align 8, !tbaa !22
  %78 = getelementptr inbounds nuw %struct.global_State, ptr %77, i32 0, i32 18
  %79 = load ptr, ptr %78, align 8, !tbaa !63
  %80 = load ptr, ptr %5, align 8, !tbaa !9
  %81 = getelementptr inbounds nuw %struct.GCObject, ptr %80, i32 0, i32 0
  %82 = icmp eq ptr %79, %81
  br i1 %82, label %83, label %91

83:                                               ; preds = %60
  %84 = load ptr, ptr %4, align 8, !tbaa !4
  %85 = load ptr, ptr %7, align 8, !tbaa !22
  %86 = getelementptr inbounds nuw %struct.global_State, ptr %85, i32 0, i32 18
  %87 = load ptr, ptr %86, align 8, !tbaa !63
  %88 = call ptr @sweeptolive(ptr noundef %84, ptr noundef %87)
  %89 = load ptr, ptr %7, align 8, !tbaa !22
  %90 = getelementptr inbounds nuw %struct.global_State, ptr %89, i32 0, i32 18
  store ptr %88, ptr %90, align 8, !tbaa !63
  br label %91

91:                                               ; preds = %83, %60
  br label %95

92:                                               ; preds = %54, %48
  %93 = load ptr, ptr %7, align 8, !tbaa !22
  %94 = load ptr, ptr %5, align 8, !tbaa !9
  call void @correctpointers(ptr noundef %93, ptr noundef %94)
  br label %95

95:                                               ; preds = %92, %91
  %96 = load ptr, ptr %7, align 8, !tbaa !22
  %97 = getelementptr inbounds nuw %struct.global_State, ptr %96, i32 0, i32 17
  store ptr %97, ptr %9, align 8, !tbaa !52
  br label %98

98:                                               ; preds = %104, %95
  %99 = load ptr, ptr %9, align 8, !tbaa !52
  %100 = load ptr, ptr %99, align 8, !tbaa !9
  %101 = load ptr, ptr %5, align 8, !tbaa !9
  %102 = icmp ne ptr %100, %101
  br i1 %102, label %103, label %108

103:                                              ; preds = %98
  br label %104

104:                                              ; preds = %103
  %105 = load ptr, ptr %9, align 8, !tbaa !52
  %106 = load ptr, ptr %105, align 8, !tbaa !9
  %107 = getelementptr inbounds nuw %struct.GCObject, ptr %106, i32 0, i32 0
  store ptr %107, ptr %9, align 8, !tbaa !52
  br label %98

108:                                              ; preds = %98
  %109 = load ptr, ptr %5, align 8, !tbaa !9
  %110 = getelementptr inbounds nuw %struct.GCObject, ptr %109, i32 0, i32 0
  %111 = load ptr, ptr %110, align 8, !tbaa !53
  %112 = load ptr, ptr %9, align 8, !tbaa !52
  store ptr %111, ptr %112, align 8, !tbaa !9
  %113 = load ptr, ptr %7, align 8, !tbaa !22
  %114 = getelementptr inbounds nuw %struct.global_State, ptr %113, i32 0, i32 19
  %115 = load ptr, ptr %114, align 8, !tbaa !64
  %116 = load ptr, ptr %5, align 8, !tbaa !9
  %117 = getelementptr inbounds nuw %struct.GCObject, ptr %116, i32 0, i32 0
  store ptr %115, ptr %117, align 8, !tbaa !53
  %118 = load ptr, ptr %5, align 8, !tbaa !9
  %119 = load ptr, ptr %7, align 8, !tbaa !22
  %120 = getelementptr inbounds nuw %struct.global_State, ptr %119, i32 0, i32 19
  store ptr %118, ptr %120, align 8, !tbaa !64
  %121 = load ptr, ptr %5, align 8, !tbaa !9
  %122 = getelementptr inbounds nuw %struct.GCObject, ptr %121, i32 0, i32 2
  %123 = load i8, ptr %122, align 1, !tbaa !30
  %124 = zext i8 %123 to i32
  %125 = or i32 %124, 64
  %126 = trunc i32 %125 to i8
  store i8 %126, ptr %122, align 1, !tbaa !30
  call void @llvm.lifetime.end.p0(i64 8, ptr %9) #6
  br label %127

127:                                              ; preds = %108
  store i32 0, ptr %8, align 4
  br label %128

128:                                              ; preds = %127, %47
  call void @llvm.lifetime.end.p0(i64 8, ptr %7) #6
  %129 = load i32, ptr %8, align 4
  switch i32 %129, label %131 [
    i32 0, label %130
    i32 1, label %130
  ]

130:                                              ; preds = %128, %128
  ret void

131:                                              ; preds = %128
  unreachable
}