; Function Attrs: nounwind uwtable
define hidden void @luaC_checkfinalizer(ptr noundef %0, ptr noundef %1, ptr noundef %2) local_unnamed_addr #0 {
  %4 = getelementptr inbounds nuw i8, ptr %0, i64 24
  %5 = load ptr, ptr %4, align 8, !tbaa !4
  %6 = getelementptr inbounds nuw i8, ptr %1, i64 9
  %7 = load i8, ptr %6, align 1, !tbaa !27
  %8 = and i8 %7, 64
  %.not = icmp ne i8 %8, 0
  %9 = icmp eq ptr %2, null
  %or.cond38 = or i1 %9, %.not
  br i1 %or.cond38, label %.critedge, label %10

10:                                               ; preds = %3
  %11 = getelementptr inbounds nuw i8, ptr %2, i64 10
  %12 = load i8, ptr %11, align 2, !tbaa !50
  %13 = and i8 %12, 4
  %.not35 = icmp eq i8 %13, 0
  br i1 %.not35, label %14, label %.critedge

14:                                               ; preds = %10
  %15 = getelementptr inbounds nuw i8, ptr %5, i64 296
  %16 = load ptr, ptr %15, align 8, !tbaa !51
  %17 = tail call ptr @luaT_gettm(ptr noundef nonnull %2, i32 noundef 2, ptr noundef %16) #8
  %18 = icmp eq ptr %17, null
  br i1 %18, label %.critedge, label %19

19:                                               ; preds = %14
  %20 = getelementptr inbounds nuw i8, ptr %5, i64 110
  %21 = load i8, ptr %20, align 2, !tbaa !52
  %22 = and i8 %21, 4
  %.not36 = icmp eq i8 %22, 0
  br i1 %.not36, label %23, label %.critedge

23:                                               ; preds = %19
  %24 = getelementptr inbounds nuw i8, ptr %5, i64 107
  %25 = load i8, ptr %24, align 1, !tbaa !20
  %26 = add i8 %25, -3
  %or.cond = icmp ult i8 %26, 4
  br i1 %or.cond, label %27, label %39

27:                                               ; preds = %23
  %28 = load i8, ptr %6, align 1, !tbaa !27
  %29 = and i8 %28, -57
  %30 = getelementptr inbounds nuw i8, ptr %5, i64 106
  %31 = load i8, ptr %30, align 2, !tbaa !30
  %32 = and i8 %31, 24
  %33 = or disjoint i8 %32, %29
  store i8 %33, ptr %6, align 1, !tbaa !27
  %34 = getelementptr inbounds nuw i8, ptr %5, i64 120
  %35 = load ptr, ptr %34, align 8, !tbaa !53
  %36 = icmp eq ptr %35, %1
  br i1 %36, label %37, label %correctpointers.exit

37:                                               ; preds = %27
  %38 = tail call fastcc ptr @sweeptolive(ptr noundef nonnull %0, ptr noundef %35)
  store ptr %38, ptr %34, align 8, !tbaa !53
  br label %correctpointers.exit

39:                                               ; preds = %23
  %40 = getelementptr inbounds nuw i8, ptr %5, i64 192
  %41 = load ptr, ptr %40, align 8, !tbaa !46
  %42 = icmp eq ptr %1, %41
  br i1 %42, label %43, label %checkpointer.exit.i

43:                                               ; preds = %39
  %44 = load ptr, ptr %1, align 8, !tbaa !47
  store ptr %44, ptr %40, align 8, !tbaa !46
  br label %checkpointer.exit.i

checkpointer.exit.i:                              ; preds = %43, %39
  %45 = getelementptr inbounds nuw i8, ptr %5, i64 200
  %46 = load ptr, ptr %45, align 8, !tbaa !46
  %47 = icmp eq ptr %1, %46
  br i1 %47, label %48, label %checkpointer.exit8.i

48:                                               ; preds = %checkpointer.exit.i
  %49 = load ptr, ptr %1, align 8, !tbaa !47
  store ptr %49, ptr %45, align 8, !tbaa !46
  br label %checkpointer.exit8.i

checkpointer.exit8.i:                             ; preds = %48, %checkpointer.exit.i
  %50 = getelementptr inbounds nuw i8, ptr %5, i64 208
  %51 = load ptr, ptr %50, align 8, !tbaa !46
  %52 = icmp eq ptr %1, %51
  br i1 %52, label %53, label %checkpointer.exit9.i

53:                                               ; preds = %checkpointer.exit8.i
  %54 = load ptr, ptr %1, align 8, !tbaa !47
  store ptr %54, ptr %50, align 8, !tbaa !46
  br label %checkpointer.exit9.i

checkpointer.exit9.i:                             ; preds = %53, %checkpointer.exit8.i
  %55 = getelementptr inbounds nuw i8, ptr %5, i64 216
  %56 = load ptr, ptr %55, align 8, !tbaa !46
  %57 = icmp eq ptr %1, %56
  br i1 %57, label %58, label %correctpointers.exit

58:                                               ; preds = %checkpointer.exit9.i
  %59 = load ptr, ptr %1, align 8, !tbaa !47
  store ptr %59, ptr %55, align 8, !tbaa !46
  br label %correctpointers.exit

correctpointers.exit:                             ; preds = %58, %checkpointer.exit9.i, %27, %37
  %60 = getelementptr inbounds nuw i8, ptr %5, i64 112
  br label %61

61:                                               ; preds = %61, %correctpointers.exit
  %.0 = phi ptr [ %60, %correctpointers.exit ], [ %62, %61 ]
  %62 = load ptr, ptr %.0, align 8, !tbaa !46
  %.not37 = icmp eq ptr %62, %1
  br i1 %.not37, label %63, label %61

63:                                               ; preds = %61
  %64 = load ptr, ptr %1, align 8, !tbaa !47
  store ptr %64, ptr %.0, align 8, !tbaa !46
  %65 = getelementptr inbounds nuw i8, ptr %5, i64 128
  %66 = load ptr, ptr %65, align 8, !tbaa !54
  store ptr %66, ptr %1, align 8, !tbaa !47
  store ptr %1, ptr %65, align 8, !tbaa !54
  %67 = load i8, ptr %6, align 1, !tbaa !27
  %68 = or i8 %67, 64
  store i8 %68, ptr %6, align 1, !tbaa !27
  br label %.critedge

.critedge:                                        ; preds = %3, %14, %19, %10, %63
  ret void
}